ccopy_reg
_reconstructor
p1
(cpylearn2.models.mlp
MLP
p2
c__builtin__
object
p3
NtRp4
ccollections
OrderedDict
p5
((lp6
(lp7
S'layers'
p8
a(lp9
g1
(cpylearn2.models.mlp
Sigmoid
p10
g3
NtRp11
g5
((lp12
(lp13
S'copy_input'
p14
aNaa(lp15
S'use_abs_loss'
p16
aI00
aa(lp17
S'init_bias'
p18
aF0
aa(lp19
S'requires_reformat'
p20
aI00
aa(lp21
S'mask_weights'
p22
aNaa(lp23
S'use_bias'
p24
aI01
aa(lp25
S'input_space'
p26
ag1
(cpylearn2.space
VectorSpace
p27
g3
NtRp28
(dp29
S'dim'
p30
I4
sS'_dtype'
p31
S'float64'
p32
sS'validate_callbacks'
p33
(lp34
sS'sparse'
p35
I00
sS'np_validate_callbacks'
p36
(lp37
sbaa(lp38
S'transformer'
p39
ag1
(cpylearn2.linear.matrixmul
MatrixMul
p40
g3
NtRp41
(dp42
S'_W'
p43
g1
(ctheano.tensor.sharedvar
TensorSharedVariable
p44
g3
NtRp45
(dp46
S'auto_name'
p47
S'auto_8'
p48
sS'index'
p49
NsS'tag'
p50
(itheano.gof.utils
scratchpad
p51
(dp52
S'trace'
p53
(lp54
(S'/usr/local/lib/python2.7/site-packages/theano/compile/sharedvalue.py'
p55
I209
S'shared'
p56
S'utils.add_tag_trace(var)'
tp57
asbsS'container'
p58
g1
(ctheano.gof.link
Container
p59
g3
NtRp60
(dp61
S'name'
p62
NsS'storage'
p63
(lp64
cnumpy.core.multiarray
_reconstruct
p65
(cnumpy
ndarray
p66
(I0
tS'b'
tRp67
(I1
(I4
I3
tcnumpy
dtype
p68
(S'f8'
I0
I1
tRp69
(I3
S'<'
NNNI-1
I-1
I0
tbI00
S'\x816\x0b\xcc\x04v\xdb?h\xf9\x0ed\x08\xdf\xdc\xbf\xe7@\x9d\xa8t\x84\xfd?\x80\x05\xf3N1\xed\xf4?\xbf\x06I\xca{\xcf\xec?\xa6S\xe0R\xaa\x04\xfd?\xcdm\xe4\x837#\x00\xc0!!a\xe5T\xf7\xf4?S\xe0\xcd!%!\x06\xc0Z\x99\xabNs$\xec\xbf7XY\x99\xd5\xef\x90\xbfF\x82\xf0\x1e(\x8e\x02\xc0'
tbasS'strict'
p70
I00
sS'readonly'
p71
I00
sS'type'
p72
g1
(ctheano.tensor.type
TensorType
p73
g3
NtRp74
(dp75
S'broadcastable'
p76
(I00
I00
tp77
sS'dtype'
p78
S'float64'
p79
sS'numpy_dtype'
p80
g69
sS'sparse_grad'
p81
I00
sg62
NsbsS'allow_downcast'
p82
Nsbsg62
S'h0_W'
p83
sS'owner'
p84
Nsg72
g74
sbsbaa(lp85
S'mlp'
p86
ag4
aa(lp87
S'W_lr_scale'
p88
aNaa(lp89
S'names_to_del'
p90
ac__builtin__
set
p91
((ltRp92
aa(lp93
S'sparse_stdev'
p94
aF1
aa(lp95
S'max_row_norm'
p96
aNaa(lp97
S'extensions'
p98
a(lp99
aa(lp100
S'output_space'
p101
ag1
(g27
g3
NtRp102
(dp103
g30
I3
sg31
g32
sg33
(lp104
sg35
I00
sg36
(lp105
sbaa(lp106
S'istdev'
p107
aNaa(lp108
S'monitor_style'
p109
aS'detection'
p110
aa(lp111
S'include_prob'
p112
aF1
aa(lp113
S'sparse_init'
p114
aI2
aa(lp115
S'layer_name'
p116
aS'h0'
p117
aa(lp118
S'irange'
p119
aNaa(lp120
g30
aI3
aa(lp121
S'b'
ag1
(g44
g3
NtRp122
(dp123
g47
S'auto_6'
p124
sg49
Nsg50
(itheano.gof.utils
scratchpad
p125
(dp126
g53
(lp127
(g55
I209
g56
S'utils.add_tag_trace(var)'
tp128
asbsg58
g1
(g59
g3
NtRp129
(dp130
g62
S'h0_b'
p131
sg63
(lp132
g65
(g66
(I0
tS'b'
tRp133
(I1
(I3
tg69
I00
S'\x9c\x1b\x81\xf2\x03\xdd\xd7?\xdcpt\xeb)\xaf\xb7\xbf\x7f\x82\x06+\x88H\xe6?'
tbasg70
I00
sg71
I00
sg72
g1
(g73
g3
NtRp134
(dp135
g76
(I00
tp136
sg78
S'float64'
p137
sg80
g69
sg81
I00
sg62
Nsbsg82
Nsbsg62
g131
sg84
Nsg72
g134
sbaa(lp138
S'yaml_src'
p139
aS"!obj:pylearn2.models.mlp.Sigmoid {layer_name: 'h0', dim: 3, sparse_init: 2}\n"
p140
aa(lp141
S'b_lr_scale'
p142
aNaa(lp143
S'max_col_norm'
p144
aNaa(lp145
S'min_col_norm'
p146
aNaa(lp147
S'input_dim'
p148
aI4
aatRp149
bag1
(cpylearn2.models.mlp
Softmax
p150
g3
NtRp151
g5
((lp152
(lp153
S'_has_binary_target'
p154
aI00
aa(lp155
S'W'
ag1
(g44
g3
NtRp156
(dp157
g47
S'auto_9'
p158
sg49
Nsg50
(itheano.gof.utils
scratchpad
p159
(dp160
g53
(lp161
(g55
I209
g56
S'utils.add_tag_trace(var)'
tp162
asbsg58
g1
(g59
g3
NtRp163
(dp164
g62
S'softmax_W'
p165
sg63
(lp166
g65
(g66
(I0
tS'b'
tRp167
(I1
(I3
I3
tg69
I00
S'\xf7\x0b\x8c\xba|\xf3\x0b@\x82\x9e\xb1(\xafQ\xf4\xbf\xba<3&\xa5\xca\x01\xc0\xb4\x15\xb8Gw\xed\x03\xc0\x80?\x1fK\xe6\xa1\xdc?\xc1-T~:Y\x00@\'m\xa8D\x05\x94\x11@\x84s\x8f\xc8\xcc9\xf6?\tJ\xccvx"\x17\xc0'
tbasg70
I00
sg71
I00
sg72
g1
(g73
g3
NtRp168
(dp169
g76
(I00
I00
tp170
sg78
S'float64'
p171
sg80
g69
sg81
I00
sg62
Nsbsg82
Nsbsg62
g165
sg84
Nsg72
g168
sbaa(lp172
S'needs_reformat'
p173
aI00
aa(lp174
g26
ag102
aa(lp175
g144
aNaa(lp176
g88
aNaa(lp177
g90
ag91
((ltRp178
aa(lp179
g96
aNaa(lp180
g101
ag1
(g27
g3
NtRp181
(dp182
g30
I3
sg31
g32
sg33
(lp183
sg35
I00
sg36
(lp184
sbaa(lp185
S'non_redundant'
p186
aI00
aa(lp187
g107
aNaa(lp188
S'binary_target_dim'
p189
aNaa(lp190
S'n_classes'
p191
aI3
aa(lp192
g114
aNaa(lp193
S'no_affine'
p194
aI00
aa(lp195
g116
aS'y'
aa(lp196
g119
aF0
aa(lp197
S'desired_space'
p198
ag1
(g27
g3
NtRp199
(dp200
g30
I3
sg31
g32
sg33
(lp201
sg35
I00
sg36
(lp202
sbaa(lp203
S'_params'
p204
a(lp205
g1
(g44
g3
NtRp206
(dp207
g47
S'auto_7'
p208
sg49
Nsg50
(itheano.gof.utils
scratchpad
p209
(dp210
g53
(lp211
(g55
I209
g56
S'utils.add_tag_trace(var)'
tp212
asbsg58
g1
(g59
g3
NtRp213
(dp214
g62
S'softmax_b'
p215
sg63
(lp216
g65
(g66
(I0
tS'b'
tRp217
(I1
(I3
tg69
I00
S'*\xe4S\x9c\xc1\x17\x03\xc0\xbe\x0b\xef\xd8\x89\x0c\xd9?]\x05l\xc2`\xec\xff?'
tbasg70
I00
sg71
I00
sg72
g1
(g73
g3
NtRp218
(dp219
g76
(I00
tp220
sg78
S'float64'
p221
sg80
g69
sg81
I00
sg62
Nsbsg82
Nsbsg62
g215
sg84
Nsg72
g218
sbag156
aaa(lp222
S'b'
ag206
aa(lp223
g139
aS"!obj:pylearn2.models.mlp.Softmax {layer_name: 'y', n_classes: 3, irange: 0.}\n"
p224
aa(lp225
g142
aNaa(lp226
g86
ag4
aa(lp227
g98
a(lp228
aa(lp229
g148
aI3
aatRp230
baaa(lp231
g26
ag28
aa(lp232
S'layer_names'
p233
ag91
((lp234
S'y'
ag117
atRp235
aa(lp236
S'freeze_set'
p237
ag91
((ltRp238
aa(lp239
g139
aS"!obj:pylearn2.models.mlp.MLP {layers: [!obj:pylearn2.models.mlp.Sigmoid {layer_name: 'h0',\n      dim: 3, sparse_init: 2}, !obj:pylearn2.models.mlp.Softmax {layer_name: 'y',\n      n_classes: 3, irange: 0.}], nvis: 4}\n"
p240
aa(lp241
S'rng'
p242
acnumpy.random
__RandomState_ctor
p243
(tRp244
(S'MT19937'
p245
g65
(g66
(I0
tS'b'
tRp246
(I1
(I624
tg68
(S'u4'
I0
I1
tRp247
(I3
S'<'
NNNI-1
I-1
I0
tbI00
S'\xb84\xca\xc4\xa7\xcc\xa6\xe1\x8b\xfau\x90\x11"eY\x14\xe48n\x03\x844\x1d\x0f)\x97T\x98\xf1\x06\x14\xee\x97d#\x13\xe6\xebh\xe9\x15[\xc9M\xccKbr\xae\x8dI\x9d\xf8\xdf&D$\x88\xaf \xee\x04J\x19\x92\x9f\x88\xf7\xdb\xef\x17\xc0\x8a\r\xb8c\x1c\xfeN\xfbw,k\xe6\x89F\x17\xd0za\xb7\xcb\xd2\x0b\x87\xe7\xb5~4\xffZ\x7fQ\x989\xddC\xdd\xa5\xf5\xeb\xedi\xc8\xee\x08\x9a\x93\xb1\\\x9f\x01m\xe6\xfd\xb6A\xbc\x1a\xed:\xf0:\xb8\x92\x0e\xd9i\xe0\x08\x89\x9f\x0e\xa2v\x1f\x1a\xcc*\xa62\x02\xef\x1c\x85<\x9fTW\x05\xb4\xc2\x14\x18\x86]\xaf\xdbw1\nm\xcdQ\xba\x1f\xf6$\x89X\x8f\xae<\xa1\xc8\x06\xd0(\x9f\x12L\xa6I\x7f\xe6a%\xd3\xfc\x08\x14\xf7\x02C\xf8\x1ev\x18,_\x846\x8f\xef>P@\xec{\xb6\x0e\x92F\x02\xeb60\xf1 \x94%\xdb\x9cb\xbc\x9c\xc3a\xf6\x02M\x1c\xc9\xf4UIK}%Y\x0f\x82\x01\x15I\xdb\xc3f\xb8eP\x95\xa5S\xbb\xb6\xce<\xc1\x04B>o\x07\xd6\x03\xbeq\x87\xe2\xe6lN\x8e\t\xefa\xff\x90\xb9oOxY\xfc\xedp\xc3\x1e\x02kY\xf2\xaf\xcaZV\x00y\xc1\xce\x14\xff\x93\xbdP\xf9~\x93~\xf9V\x1aU\xe2-3\xb9\x02\xdb\xbdJ5N\xca\x82\xb2\xa9CY\x1e\x02\xf4wu/BA\x99\x94s\x15tn\xb1\xb9\x9c8\xca\xdc\x15\x0f\x9dI\x02N$M\x05XkS\xc7\xa7\xb4\xde\xd5\xe5\x81\x85\xe6\xa1\x1c\x9f\x03h\x9bP]\xec\x07\x89\xcf\xaf=L\x92\x0b}\x93~5\x8f\xc4}\xae\x97\xae\xd5]L\xea\x9c5i|\xc6\\\x9dAj\xb6\xb6\xb8\xe1\xc5CO;v\x17Wq\xe2A\x82,2\xa2\xb9\xb8\xads\xc4g\x01\x96\xb7\xca\xde\xad\xa5-!\xa9\xfb\xda\xec\x14\xd3>[\xe6\x82M\xa5\x8c\xf0\x1b\xb7\xff\n\xd3}\xa4=\xb3\n,\xe5\'`m\x8e\x85\xdca\x8a\xd6\xfa\xc3\x88Ls\x18\x87\xc9lx\xcb\xf1\xd1\x9f\x8b\x0c\'b\x05\x11\xe5\xc20\r^\xbc_\x07N\xec\xaf!/\xaf\xf9\xa7\x1c\x91\xa5*4\xa3/.\xdc2\x13\xbd\xca\x84\xc4\x1a|\xea\x1b\xc1\xde\xd2\xe9\xaet0N\x19\xde\xff\x8f\xfe\xe1lm\x18il\xf5\x9fbQ\x13\n@\xc3\xb4\xb2\t\x8a\t\xe7E\x83<\xb6\xc2\x87n\xed\xf0\xb6\xc2\x9fm\x84\xcd\xf8\xe0\xa3\xa2\xb9ej\xd5\xc6\xc3\xd4\x1f\x04\xca\xfc`2\xc2\x02\xa0\x86Y\xe23\xa7A\xad\x94\xb8\xfc\x19\x1d\xb9_\xff\xcf-k\x9ec/f%\xbf\x11\x02\x86\x08\xf1\xc9\xe1\x8dc\x80\xdc&I\t\xae\x8e\x18\xecy\xe2\x04\x04u:x\x92\xaeV\x02r\x90QFQ?&\x00\x1evP\x9e+\x9aN\x13\xa5Bj\rS\xaa\xae\xb7\xee\x84N\xdc\x01\x83\xf6\xdaF\xec\x15\xebY\x8a\xa9\xcf\xf8\xe0\x07x\xab\xe6\xe3E\xf4\x94a]\xc9\xa3\xfd\xfc\xce\xb9n\xe1\x0e\x08\xdaY+\x15P\xba\xb9w\x14t*\x19\xd2\xcb\x115\xd4$\tc8\xc8\x9c\x8e\xc9\x82\xb0w\x98\xe5\xf0\x14~ND\x08\x87\\`\x92P d\x19Y\xc5\xa5`x\xdfI\xd2\xd9\xfe\xebpG0sb\x02\x06Jh\x93\xeb\xaaM\x828:\x97?x\x99\x9a\x0b\xa1\xc6\x18\x06\xbd7\xeb\n\xde\x169\xb4\xb8\x88\xe6tN\x18J\xf2\xde\x00\xfd?\xeb3\xbcD\xe3\x9a\xad!A\xdc\xa0\xf2\x07F\xed\xc5\x7f\x86\x7f\x89\xd2%\xfc\x05\x96!\x13z\xe7\xf1\xd2\xcb\xbc]GY\xe2l\x04\x9f;\x16)\x8e\xc4\x9f\x85\xf5\xbc39\xfb\x8f1SXlRMJ\xdcr/J\x9cK*\xa7\xd0\xa00\xablwcX\xc8yB\xefIuf\xab\xb2\xc4\xf7\x13\xb0\xb1\x90\xe9)\x0f\xe8\xaf\xbb\xc3T\xc3\xf4\x1b\xa5 9GW"\xdd\xc1\x82\x06G\x91*\xbba\x19\x8fuE\x90\xa5\x80\xab@x#\xeb\'\xf8-\xc9\x1e\xbf\xd1T\xbb\x99\xd9w)\xea\xe4\xbdUe6\xb3\x83B\x92\xc7b\xd2\xec\'\xeft\xad\x129\x0b\xec\x02\x91\xc8\x8f\x03\xf1Y\x0fV\xc2\xc8\xdeXjl(\xb2\x14\x96u\xdb_\xc2\x05\x9c\xf7:#\xe2\x9fv\xf1\xeb\xcal\x1a@"\xfc\xe9y\xdd_w\xb2\xce\xcd`\x83\xd6=\xcc\x04\'\x8e\xf6\xf4\x9e\xcbJn\xf2a\xda\xf2c\x03B\xc5\xca\xd6\xe8\xa2]\xe9Mgi\xb3[\xf8\xf6(\xf6\x05\x8a4U\x82%\x85\xf6\xb5W\xbe\x18:?!u\xdf\xfd^\x8c\xb0\xb3\x83h\xda\xae\xcb\xab\x98\xfa\x02\xb3\x8anwI\'\x80\x99\xd4\xc2\x8f).#\xb5>\x9b\xd8B\xa4d_\xe2t\x8ac5\x06\x7f;\xb6G^\x9f\x9a\x86\x08\xc4\xbe\xdc\x853\xe3\xfc%\xeb\xf2\xd5N\x8a\xca\x97\xc3\x7fQ\xcb\x11\nl\xcd\xe1\x14\x18y\xdcc\x1128%0\x80lx=\x10)o5\xf6)MM\x1c\xdb3\x14\xc91[;\x0f\xfb>\xa0DP\xbd\xbd\x9dWm\x16\xec\x08\x91?b\xe1\xb5\r\xcd\x93:\x1e\x98\xf3\xb5\xe1\x1b\xe7\x00\xe7\xd8*~B\x1d\xd5\x89\xdf\xb7H\xe2J\xcf\x9c\xf2\x1e\x95\xfe\x0bcI\xba\x85$W|\x86\r\xe0\xa53]\x85\xf6\x08\xa7\xbb\x03/\xecy\xe5\xb0\xde1c\xee\\\x96\xb5I`i\x97\xf2\x99\xc0\xe8t\xf4\xc1\xf7E\xa7\xd6\x9c\x02\x8fO<\x84`xn\xe5\\\xf4\x90(\xaf\x8dsf\xd8V\x11\xa2E\x026\xe8\x1b\x8eu\xba]Y\xb6gt5\x07\xc0M\x04:`\x183\xccY\xb1zv\xe5\xb7\xbb\x1c\xa7Z\xda\x01\xfd\x15\xbe\xacP!=\xbcg\xfa\xf3#\xea\x1aV&\x05\xf9W\xd8\xa6\xc8r\xc1\x164\xb1\xfb\xe5E1C[\x920\xa65\xb0`\xea\xfc\x9c =bS\x97m\xd1\xcf\xc9\xa8\xf3k*\xa5\xf7_\xfcQ\x90\x84\r\x9bs\xfb\xee(l/_\x06\x05\x1eQ\xff\x17a\xabI\xeb\x06]\xecX\x87\x92\x97u\x83\xd7\xaa\x85\x86Q\xe4L7N\xa3\x1a\xd5\x8c;\xb7:\xaa\xf7=3Xp\xc6\xbb\x83\xa1y\xc7\xd58\xcc\xda7\xd0\x0b7\xa8+\xea\x08\x9f\xde\xa5\xef\x87\xc43p\x11VdN\xc7\xa1\xee\xaa\xe5\xa7pD\x93s\xf6\x05y\xf6\xd95zw\x95\xd8\x05\xcf&\x98\x9a \x80\xbd\x81\xaehc1\n\xee\xe3\x1eu\xeb\x05\x9cQw\xbe\x9d\xd6A\xd0\xdf*[m\xc7\xc6\xc8\xce\xe04\x15\x16R==\t\x98\xf9\x17\x9f>\xce\xf9\xff\xc1\xc7\xa1\xd7\x8f-\xcd\x04&\'[\xce\x82\x04\xb6\xc2\xbe\xd2\xdbuE\x1b>\xc3%\'\x90=\x03\x9b\x05\x83RB\xf33\xba0_\xca\xe7\x19\x93\x15H\xf6\x84:%\x05\xed\xc2\x01d\x98\xb9\xdeLX\xf1\xbclu\xbc?c\xd6\x13|T\xe9}\x08N\x8emB~\xf6\x1e\x8dRp\x83\xb2~&\x82d\xe8\xc4\x18\x18\xba\xa1\xff\xe1;dT\xdcm\xd6\x87>b\x1d\x05{U\xf8\xf1\x9d\x9d\xfb\xf9=m\x19\xf74E\xddID\xe9G\x17\r\xf1\x90\xd0\xcbY\x19\x9c\xe6dX\xb8\xdf\x8b\xb3\xfan\x88\xc7\x8c\xd9\x8dl\xf0\xd7\x07\t\xbc\xd1v\x15R:\x00G\x1d\xf1\xfc\xed\xb8Z\x8f\x9bkmq\xf2M\xd1\xe6\xa7\xc6A\x98\xc1\x8b\xd6m\xa1\xde\x81\xda\xaf\xd9\x1b\xa9\xea\xd27/Wj-\xfbl\xd9;\r\x90NN\xf4\x08\x1b\x0f\n\xb4t\xdc\xd6\xeb\xadA\x87j}\x92W\xe9\xf8{\xf88[\x18\xa4P\xd9\xb1\xf9+Gy(2Q\x11\xc1\x88\x18\x90\xb7\xe3\xc5\x8ez\xcc\xfc\xf4\xd9\xaeU\xb1\xf2\xb3\xf3\xb2\x80q\xf6\x18i\x17?\x15\xca\x11#)G\x93\x9c\xb2]\xbev\xc2\x8b\x9e\x87\x80(a*>\xb1P7\xda1\x0c\xd1(p\xa0\x17p\x04\x1e\x04(\x9e\x18,\xf0\x19.\x82(cg\x00\xeet`?_\x06k0\x04\x80\xc6%\xa2\xc6\xce\xd0H\xbdGS<\xe2 \x92\xbc^\xfb\xf5c\x05\xf5!\x90\x98J\x8b\xc9\xb4 _G\xab^\x18@2\x804\x19Z\xe5ZI\xe5=`\x95\xfe&(\xaf\xae\xf0\xb8\xbcT\xf6\xdd\x82\'\x95A\x95uB.\xa2~\x91\xcf\x1d\xc7\\\x9b\xfc\xc6V\xa3\xae\x1dx\xc9im8[\x8b\x9d\x1f\x1f6*\xa5\xbc\x9d\xd2\xc1:\x99\xa8z\x84\r\x91\x044\x8d<,\x10\xe3\x11\x85\x93!:$\xa8\x054]\xf1a\xaf\x90\x0c\xf6\xd3V\xaa\xb1\x83q\xdeG\xf6\x06\xffi\xb9\xa9\xf11\x99&@k\xc1\x81H\xee\xa1\x04\x97\xfe\xad\xa1\xce[\x1b\xb7\xf0/\x0e@z\xf0l_\xcb&\xc1j\xc4b(\x8b\x04\xd9\xafw\x06\xa7f9\x80\xf1y\x8bL>\xe2\xfejj"\xdft\xe3g<\xd5\xf7I4\xec:c`2[^:O\xd7\xfaB\xd21\x89j\xd6#\x81\t\xb0$\x10\xef\x81Z9O3\xaa\x08\x0b7\x1e\x0cb\xff\x14\x7f\x81\x92\xcc\x0c\xef\xfc#\x1c>I\xed.\xb4\'&e\t\xcdY6c\n\r\xa9\xae\x0cI\xea\xe1\xc6\xb8\x0b\x07\xea\x01u\x04I6O\xa8k4L"=\xbd\xa5\t\x07\xc7\xc0\xcd?\xf6K\xa4\xd9\x1d8\x8eov\x92\xb1\xc9\x0f{\xe5D\xb4S\xe4\x81\x987p\x1b\x1c$\xb2o\x9f\x93c\xf6v\x15\x8b\x7f\xc8\xc1\xb2\x94\xd5M\x94\x93\n\xae\x0bP\x02*\x12\x91\xdek\xef\xf9\xbd\xf5.\x89\xab\x7f\xfaW3\xa8\x94\xc8\x99BQ\xe9_\x90\x96s\xe9$\xe0i\xc9\xb9\xf6C\xb7A\xbb\x90\xd0\x88.\xc3\x88\xc8\x1a\xda\xc7\xad\xbeS\x1d\x82)\x19\x0b\x94\xd9e N\xf6@\xa0\x18\x0c\xd7\xe4\xbf\xbd\xad\x8a\xd6\xe7\x8a\x98\xfd\xb2\xfb\xdd\xf5\x96\xd1\xf2vj\x97\x01\xa7\xa1\xcfS{\xbe8\xac8\x91\xc4\x85\x12j]o\xba\x91\xbf\t\xd3\xff\x07\x13\xc3:v\x07\x88)\x89?\x89\xd1\xdd\xedq\xcd\x7fR\xf7\x16\xdf\x8f\x80\xa5\x93\x84>\x07\xa075w\xa4\x8a\x8f\xd4T\x8bV\x12\n\xa8\x0ed\xcc\xe5\x13\xef\x078\x95\xdbjJ\xc1\xd2\x94\x02\xa6\x17\x9b?~lN\xb4+\x07\x8a\x08\x952C\x10\x0e\x1b\xc1\xb1\xbds\x7f\xf3&\xd5\xc6Y\xab\xb9dx\xe1\x07\x0b\xb9 \x11V\x17\xf6R\xc4%\x03C\\zoB\xbb\x7fKF_;M\xfe+q\x1e-\xa5-\xc5\xcf\xaf\xafr\x05\xfc\x94\xcc\x82=\x9f\x13\x9931\x8e\xc1\x10\''
tbI40
I0
F0
tbaa(lp248
S'_tag'
p249
accollections
defaultdict
p250
(c__builtin__
dict
p251
tRp252
S'MonitorBasedSaveBest'
p253
(dp254
S'channel_name'
p255
S'valid_y_misclass'
p256
sS'hostname'
p257
S'kagaminaoto-no-iMac.local'
p258
sS'save_path'
p259
S'/Users/kagaminaoto/Research/Subject/workspace/Subject03/exercise01/practice01/mlp_best.pkl'
p260
sS'best_cost'
p261
cnumpy.core.multiarray
scalar
p262
(g69
S'\x00\x00\x00\x00\x00\x00\x00\x00'
tRp263
ssaa(lp264
S'_target_source'
p265
aS'targets'
p266
aa(lp267
S'_nested'
p268
aI00
aa(lp269
S'monitor_targets'
p270
aI01
aa(lp271
S'seed'
p272
a(lp273
I2013
aI1
aI4
aaa(lp274
g98
a(lp275
aa(lp276
S'batch_size'
p277
aNaa(lp278
g90
ag91
((ltRp279
aa(lp280
S'force_batch_size'
p281
aNaa(lp282
S'_input_source'
p283
aS'features'
p284
aa(lp285
S'monitor'
p286
ag1
(cpylearn2.monitor
Monitor
p287
g3
NtRp288
(dp289
S'_batch_size'
p290
(lp291
I20
aI20
aI20
asS'_dirty'
p292
I00
sS'_flat_data_specs'
p293
(g1
(cpylearn2.space
CompositeSpace
p294
g3
NtRp295
(dp296
g33
(lp297
sS'components'
p298
(lp299
g28
ag181
asg36
(lp300
sb(g284
g266
ttp301
sS'_epochs_seen'
p302
I1
sS'_num_batches'
p303
(lp304
NaNaNasS'_examples_seen'
p305
I72
sS'time_budget_exceeded'
p306
I00
sS'channels'
p307
g5
((lp308
(lp309
S'test_objective'
p310
ag1
(cpylearn2.monitor
MonitorChannel
p311
g3
NtRp312
(dp313
S'epoch_record'
p314
(lp315
I0
aI1
asS'doc'
p316
NsS'val_record'
p317
(lp318
g262
(g69
S'\x0b\x03\xadz\xea\x93\xf1?'
tRp319
ag262
(g69
S'\xa6\xd42\xb5\xad\xd4\xc4?'
tRp320
asS'batch_record'
p321
(lp322
I0
aI4
asS'time_record'
p323
(lp324
F4.7681820392608643
aF4.8365929126739502
asS'example_record'
p325
(lp326
I0
aI72
asbaa(lp327
S'test_h0_range_x_min_u'
p328
ag1
(g311
g3
NtRp329
(dp330
g314
(lp331
I0
aI1
asg316
S'This channel came from a layer called "h0" of an MLP.\n<class \'pylearn2.models.mlp.Sigmoid\'>.get_monitoring_channels_from_state did not provide any further documentation for this channel.'
p332
sg317
(lp333
g262
(g69
S'b)@\xff~\x86q?'
tRp334
ag262
(g69
S'\xa0\xec\xe8)\x94\xfe\xb7?'
tRp335
asg321
(lp336
I0
aI4
asg323
(lp337
F4.7681820392608643
aF4.8365929126739502
asg325
(lp338
I0
aI72
asbaa(lp339
S'test_h0_min_x_mean_u'
p340
ag1
(g311
g3
NtRp341
(dp342
g314
(lp343
I0
aI1
asg316
S'This channel came from a layer called "h0" of an MLP.\n<class \'pylearn2.models.mlp.Sigmoid\'>.get_monitoring_channels_from_state did not provide any further documentation for this channel.'
p344
sg317
(lp345
g262
(g69
S'\xa8\xbc6Z$\x01\xdd?'
tRp346
ag262
(g69
S'\x9cDKO;\x10\xd4?'
tRp347
asg321
(lp348
I0
aI4
asg323
(lp349
F4.7681820392608643
aF4.8365929126739502
asg325
(lp350
I0
aI72
asbaa(lp351
S'test_h0_mean_x_max_u'
p352
ag1
(g311
g3
NtRp353
(dp354
g314
(lp355
I0
aI1
asg316
S'This channel came from a layer called "h0" of an MLP.\n<class \'pylearn2.models.mlp.Sigmoid\'>.get_monitoring_channels_from_state did not provide any further documentation for this channel.'
p356
sg317
(lp357
g262
(g69
S'\x9c\xea\xc6\xd9\x9f\xf9\xef?'
tRp358
ag262
(g69
S'\xa2\xe6G\x0f 5\xef?'
tRp359
asg321
(lp360
I0
aI4
asg323
(lp361
F4.7681820392608643
aF4.8365929126739502
asg325
(lp362
I0
aI72
asbaa(lp363
S'test_y_col_norms_max'
p364
ag1
(g311
g3
NtRp365
(dp366
g314
(lp367
I0
aI1
asg316
S'This channel came from a layer called "y" of an MLP.\n<class \'pylearn2.models.mlp.Softmax\'>.get_monitoring_channels_from_state did not provide any further documentation for this channel.'
p368
sg317
(lp369
g262
(g69
S'\x00\x00\x00\x00\x00\x00\x00\x00'
tRp370
ag262
(g69
S'\xd1\xcf\x1fCb\x19\x1a@'
tRp371
asg321
(lp372
I0
aI4
asg323
(lp373
F4.7681820392608643
aF4.8365929126739502
asg325
(lp374
I0
aI72
asbaa(lp375
S'test_y_nll'
p376
ag1
(g311
g3
NtRp377
(dp378
g314
(lp379
I0
aI1
asg316
S'This channel came from a layer called "y" of an MLP.\n<class \'pylearn2.models.mlp.Softmax\'>.get_monitoring_channels_from_state did not provide any further documentation for this channel.'
p380
sg317
(lp381
g262
(g69
S'\x0b\x03\xadz\xea\x93\xf1?'
tRp382
ag262
(g69
S'\xa6\xd42\xb5\xad\xd4\xc4?'
tRp383
asg321
(lp384
I0
aI4
asg323
(lp385
F4.7681820392608643
aF4.8365929126739502
asg325
(lp386
I0
aI72
asbaa(lp387
S'test_h0_range_x_max_u'
p388
ag1
(g311
g3
NtRp389
(dp390
g314
(lp391
I0
aI1
asg316
S'This channel came from a layer called "h0" of an MLP.\n<class \'pylearn2.models.mlp.Sigmoid\'>.get_monitoring_channels_from_state did not provide any further documentation for this channel.'
p392
sg317
(lp393
g262
(g69
S'\xf8F\xf1\xc3\xbff\xc0?'
tRp394
ag262
(g69
S'\xcf[\xf9P\xd5\xb0\xef?'
tRp395
asg321
(lp396
I0
aI4
asg323
(lp397
F4.7681820392608643
aF4.8365929126739502
asg325
(lp398
I0
aI72
asbaa(lp399
S'test_h0_range_x_mean_u'
p400
ag1
(g311
g3
NtRp401
(dp402
g314
(lp403
I0
aI1
asg316
S'This channel came from a layer called "h0" of an MLP.\n<class \'pylearn2.models.mlp.Sigmoid\'>.get_monitoring_channels_from_state did not provide any further documentation for this channel.'
p404
sg317
(lp405
g262
(g69
S'v8\xc3\x8b[\x1f\xae?'
tRp406
ag262
(g69
S'\xb6\x88\x0b\x89\xa6\xdd\xe5?'
tRp407
asg321
(lp408
I0
aI4
asg323
(lp409
F4.7681820392608643
aF4.8365929126739502
asg325
(lp410
I0
aI72
asbaa(lp411
S'test_h0_min_x_max_u'
p412
ag1
(g311
g3
NtRp413
(dp414
g314
(lp415
I0
aI1
asg316
S'This channel came from a layer called "h0" of an MLP.\n<class \'pylearn2.models.mlp.Sigmoid\'>.get_monitoring_channels_from_state did not provide any further documentation for this channel.'
p416
sg317
(lp417
g262
(g69
S'\x902\xceI\xed\xdc\xef?'
tRp418
ag262
(g69
S'\xc2\r\xbd\x07V\xfc\xec?'
tRp419
asg321
(lp420
I0
aI4
asg323
(lp421
F4.7681820392608643
aF4.8365929126739502
asg325
(lp422
I0
aI72
asbaa(lp423
S'test_h0_max_x_min_u'
p424
ag1
(g311
g3
NtRp425
(dp426
g314
(lp427
I0
aI1
asg316
S'This channel came from a layer called "h0" of an MLP.\n<class \'pylearn2.models.mlp.Sigmoid\'>.get_monitoring_channels_from_state did not provide any further documentation for this channel.'
p428
sg317
(lp429
g262
(g69
S'{ X\xab=\xfb\xa6?'
tRp430
ag262
(g69
S"\xa8\x11@3'\xb5\xef?"
tRp431
asg321
(lp432
I0
aI4
asg323
(lp433
F4.7681820392608643
aF4.8365929126739502
asg325
(lp434
I0
aI72
asbaa(lp435
S'test_h0_row_norms_min'
p436
ag1
(g311
g3
NtRp437
(dp438
g314
(lp439
I0
aI1
asg316
S'This channel came from a layer called "h0" of an MLP.\n<class \'pylearn2.models.mlp.Sigmoid\'>.get_monitoring_channels_from_state did not provide any further documentation for this channel.'
p440
sg317
(lp441
g262
(g69
S'\x00\x00\x00\x00\x00\x00\x00\x00'
tRp442
ag262
(g69
S">4\x91\x03''\xff?"
tRp443
asg321
(lp444
I0
aI4
asg323
(lp445
F4.7681820392608643
aF4.8365929126739502
asg325
(lp446
I0
aI72
asbaa(lp447
S'test_y_row_norms_max'
p448
ag1
(g311
g3
NtRp449
(dp450
g314
(lp451
I0
aI1
asg316
S'This channel came from a layer called "y" of an MLP.\n<class \'pylearn2.models.mlp.Softmax\'>.get_monitoring_channels_from_state did not provide any further documentation for this channel.'
p452
sg317
(lp453
g262
(g69
S'\x00\x00\x00\x00\x00\x00\x00\x00'
tRp454
ag262
(g69
S'\xfc{\xfb\x07\xed\x94\x1d@'
tRp455
asg321
(lp456
I0
aI4
asg323
(lp457
F4.7681820392608643
aF4.8365929126739502
asg325
(lp458
I0
aI72
asbaa(lp459
S'test_y_misclass'
p460
ag1
(g311
g3
NtRp461
(dp462
g314
(lp463
I0
aI1
asg316
S'This channel came from a layer called "y" of an MLP.\n<class \'pylearn2.models.mlp.Softmax\'>.get_monitoring_channels_from_state did not provide any further documentation for this channel.'
p464
sg317
(lp465
g262
(g69
S'\xd0pR\xf7\xe5\xb1\xe5?'
tRp466
ag262
(g69
S"\r'u_\x1e[\x91?"
tRp467
asg321
(lp468
I0
aI4
asg323
(lp469
F4.7681820392608643
aF4.8365929126739502
asg325
(lp470
I0
aI72
asbaa(lp471
S'test_h0_min_x_min_u'
p472
ag1
(g311
g3
NtRp473
(dp474
g314
(lp475
I0
aI1
asg316
S'This channel came from a layer called "h0" of an MLP.\n<class \'pylearn2.models.mlp.Sigmoid\'>.get_monitoring_channels_from_state did not provide any further documentation for this channel.'
p476
sg317
(lp477
g262
(g69
S'_\x08\xe6\xee}>J?'
tRp478
ag262
(g69
S'\x9b\xc5K\xb8\x02\x1bF?'
tRp479
asg321
(lp480
I0
aI4
asg323
(lp481
F4.7681820392608643
aF4.8365929126739502
asg325
(lp482
I0
aI72
asbaa(lp483
S'test_y_mean_max_class'
p484
ag1
(g311
g3
NtRp485
(dp486
g314
(lp487
I0
aI1
asg316
S'This channel came from a layer called "y" of an MLP.\n<class \'pylearn2.models.mlp.Softmax\'>.get_monitoring_channels_from_state did not provide any further documentation for this channel.'
p488
sg317
(lp489
g262
(g69
S'SUUUUU\xd5?'
tRp490
ag262
(g69
S'\x1a\x1by\xaa\xc1\x81\xeb?'
tRp491
asg321
(lp492
I0
aI4
asg323
(lp493
F4.7681820392608643
aF4.8365929126739502
asg325
(lp494
I0
aI72
asbaa(lp495
S'test_h0_row_norms_mean'
p496
ag1
(g311
g3
NtRp497
(dp498
g314
(lp499
I0
aI1
asg316
S'This channel came from a layer called "h0" of an MLP.\n<class \'pylearn2.models.mlp.Sigmoid\'>.get_monitoring_channels_from_state did not provide any further documentation for this channel.'
p500
sg317
(lp501
g262
(g69
S'\x10K\x9c\xe5\xf1E\xea?'
tRp502
ag262
(g69
S'\x8a\x0f`V\x04\x02\x05@'
tRp503
asg321
(lp504
I0
aI4
asg323
(lp505
F4.7681820392608643
aF4.8365929126739502
asg325
(lp506
I0
aI72
asbaa(lp507
S'test_h0_col_norms_max'
p508
ag1
(g311
g3
NtRp509
(dp510
g314
(lp511
I0
aI1
asg316
S'This channel came from a layer called "h0" of an MLP.\n<class \'pylearn2.models.mlp.Sigmoid\'>.get_monitoring_channels_from_state did not provide any further documentation for this channel.'
p512
sg317
(lp513
g262
(g69
S'\xde,\x07\xb6K\xf2\xfd?'
tRp514
ag262
(g69
S'\xec\x95\x12\x1b\xc7\xc3\x11@'
tRp515
asg321
(lp516
I0
aI4
asg323
(lp517
F4.7681820392608643
aF4.8365929126739502
asg325
(lp518
I0
aI72
asbaa(lp519
S'test_h0_mean_x_mean_u'
p520
ag1
(g311
g3
NtRp521
(dp522
g314
(lp523
I0
aI1
asg316
S'This channel came from a layer called "h0" of an MLP.\n<class \'pylearn2.models.mlp.Sigmoid\'>.get_monitoring_channels_from_state did not provide any further documentation for this channel.'
p524
sg317
(lp525
g262
(g69
S'\xaa\x19&D\x8f\xa9\xde?'
tRp526
ag262
(g69
S'\xd2h\x14QG\xdc\xe4?'
tRp527
asg321
(lp528
I0
aI4
asg323
(lp529
F4.7681820392608643
aF4.8365929126739502
asg325
(lp530
I0
aI72
asbaa(lp531
S'test_y_row_norms_min'
p532
ag1
(g311
g3
NtRp533
(dp534
g314
(lp535
I0
aI1
asg316
S'This channel came from a layer called "y" of an MLP.\n<class \'pylearn2.models.mlp.Softmax\'>.get_monitoring_channels_from_state did not provide any further documentation for this channel.'
p536
sg317
(lp537
g262
(g69
S'\x00\x00\x00\x00\x00\x00\x00\x00'
tRp538
ag262
(g69
S'\x84\xdf\x7f\x17\xe0\x05\n@'
tRp539
asg321
(lp540
I0
aI4
asg323
(lp541
F4.7681820392608643
aF4.8365929126739502
asg325
(lp542
I0
aI72
asbaa(lp543
S'test_h0_mean_x_min_u'
p544
ag1
(g311
g3
NtRp545
(dp546
g314
(lp547
I0
aI1
asg316
S'This channel came from a layer called "h0" of an MLP.\n<class \'pylearn2.models.mlp.Sigmoid\'>.get_monitoring_channels_from_state did not provide any further documentation for this channel.'
p548
sg317
(lp549
g262
(g69
S'\xec\x99"\xf1\xc0\xe6\x88?'
tRp550
ag262
(g69
S'V\x94\xcbe\xb6\x7f\xd5?'
tRp551
asg321
(lp552
I0
aI4
asg323
(lp553
F4.7681820392608643
aF4.8365929126739502
asg325
(lp554
I0
aI72
asbaa(lp555
S'test_h0_max_x_mean_u'
p556
ag1
(g311
g3
NtRp557
(dp558
g314
(lp559
I0
aI1
asg316
S'This channel came from a layer called "h0" of an MLP.\n<class \'pylearn2.models.mlp.Sigmoid\'>.get_monitoring_channels_from_state did not provide any further documentation for this channel.'
p560
sg317
(lp561
g262
(g69
S'\xdc\x91\xd7\xe5\x87b\xe0?'
tRp562
ag262
(g69
S'\x04+\xb10\xc4\xe5\xef?'
tRp563
asg321
(lp564
I0
aI4
asg323
(lp565
F4.7681820392608643
aF4.8365929126739502
asg325
(lp566
I0
aI72
asbaa(lp567
S'test_y_col_norms_mean'
p568
ag1
(g311
g3
NtRp569
(dp570
g314
(lp571
I0
aI1
asg316
S'This channel came from a layer called "y" of an MLP.\n<class \'pylearn2.models.mlp.Softmax\'>.get_monitoring_channels_from_state did not provide any further documentation for this channel.'
p572
sg317
(lp573
g262
(g69
S'\x00\x00\x00\x00\x00\x00\x00\x00'
tRp574
ag262
(g69
S'(\xad\xde\xbd\xedw\x13@'
tRp575
asg321
(lp576
I0
aI4
asg323
(lp577
F4.7681820392608643
aF4.8365929126739502
asg325
(lp578
I0
aI72
asbaa(lp579
S'test_y_max_max_class'
p580
ag1
(g311
g3
NtRp581
(dp582
g314
(lp583
I0
aI1
asg316
S'This channel came from a layer called "y" of an MLP.\n<class \'pylearn2.models.mlp.Softmax\'>.get_monitoring_channels_from_state did not provide any further documentation for this channel.'
p584
sg317
(lp585
g262
(g69
S'UUUUUU\xd5?'
tRp586
ag262
(g69
S'\x93\xe6\x15\xbb\x1eg\xee?'
tRp587
asg321
(lp588
I0
aI4
asg323
(lp589
F4.7681820392608643
aF4.8365929126739502
asg325
(lp590
I0
aI72
asbaa(lp591
S'test_h0_col_norms_mean'
p592
ag1
(g311
g3
NtRp593
(dp594
g314
(lp595
I0
aI1
asg316
S'This channel came from a layer called "h0" of an MLP.\n<class \'pylearn2.models.mlp.Sigmoid\'>.get_monitoring_channels_from_state did not provide any further documentation for this channel.'
p596
sg317
(lp597
g262
(g69
S'\x00\xb9\xc3M\xcf\xb7\xec?'
tRp598
ag262
(g69
S'\xc6\xf0\x08\xa6\x0c,\x07@'
tRp599
asg321
(lp600
I0
aI4
asg323
(lp601
F4.7681820392608643
aF4.8365929126739502
asg325
(lp602
I0
aI72
asbaa(lp603
S'test_y_min_max_class'
p604
ag1
(g311
g3
NtRp605
(dp606
g314
(lp607
I0
aI1
asg316
S'This channel came from a layer called "y" of an MLP.\n<class \'pylearn2.models.mlp.Softmax\'>.get_monitoring_channels_from_state did not provide any further documentation for this channel.'
p608
sg317
(lp609
g262
(g69
S'UUUUUU\xd5?'
tRp610
ag262
(g69
S'\x86"\xc7\xc0\x02\xbf\xe0?'
tRp611
asg321
(lp612
I0
aI4
asg323
(lp613
F4.7681820392608643
aF4.8365929126739502
asg325
(lp614
I0
aI72
asbaa(lp615
S'test_y_row_norms_mean'
p616
ag1
(g311
g3
NtRp617
(dp618
g314
(lp619
I0
aI1
asg316
S'This channel came from a layer called "y" of an MLP.\n<class \'pylearn2.models.mlp.Softmax\'>.get_monitoring_channels_from_state did not provide any further documentation for this channel.'
p620
sg317
(lp621
g262
(g69
S'\x00\x00\x00\x00\x00\x00\x00\x00'
tRp622
ag262
(g69
S'\xc3\xa2\xd8]D\xf9\x13@'
tRp623
asg321
(lp624
I0
aI4
asg323
(lp625
F4.7681820392608643
aF4.8365929126739502
asg325
(lp626
I0
aI72
asbaa(lp627
S'test_h0_row_norms_max'
p628
ag1
(g311
g3
NtRp629
(dp630
g314
(lp631
I0
aI1
asg316
S'This channel came from a layer called "h0" of an MLP.\n<class \'pylearn2.models.mlp.Sigmoid\'>.get_monitoring_channels_from_state did not provide any further documentation for this channel.'
p632
sg317
(lp633
g262
(g69
S'\xcdw/\x1cu\xf0\xf7?'
tRp634
ag262
(g69
S'C\xa2\x85\x93\x85S\r@'
tRp635
asg321
(lp636
I0
aI4
asg323
(lp637
F4.7681820392608643
aF4.8365929126739502
asg325
(lp638
I0
aI72
asbaa(lp639
S'test_h0_max_x_max_u'
p640
ag1
(g311
g3
NtRp641
(dp642
g314
(lp643
I0
aI1
asg316
S'This channel came from a layer called "h0" of an MLP.\n<class \'pylearn2.models.mlp.Sigmoid\'>.get_monitoring_channels_from_state did not provide any further documentation for this channel.'
p644
sg317
(lp645
g262
(g69
S'\xe4\xb2\xccG\xfa\xff\xef?'
tRp646
ag262
(g69
S'\nD\xd9\xd1\xfc\xff\xef?'
tRp647
asg321
(lp648
I0
aI4
asg323
(lp649
F4.7681820392608643
aF4.8365929126739502
asg325
(lp650
I0
aI72
asbaa(lp651
S'test_y_col_norms_min'
p652
ag1
(g311
g3
NtRp653
(dp654
g314
(lp655
I0
aI1
asg316
S'This channel came from a layer called "y" of an MLP.\n<class \'pylearn2.models.mlp.Softmax\'>.get_monitoring_channels_from_state did not provide any further documentation for this channel.'
p656
sg317
(lp657
g262
(g69
S'\x00\x00\x00\x00\x00\x00\x00\x00'
tRp658
ag262
(g69
S'H\xbcOi\xf8\xf3\xfe?'
tRp659
asg321
(lp660
I0
aI4
asg323
(lp661
F4.7681820392608643
aF4.8365929126739502
asg325
(lp662
I0
aI72
asbaa(lp663
S'test_h0_col_norms_min'
p664
ag1
(g311
g3
NtRp665
(dp666
g314
(lp667
I0
aI1
asg316
S'This channel came from a layer called "h0" of an MLP.\n<class \'pylearn2.models.mlp.Sigmoid\'>.get_monitoring_channels_from_state did not provide any further documentation for this channel.'
p668
sg317
(lp669
g262
(g69
S'K\x9e\xc0\xc0u\xad\xb9?'
tRp670
ag262
(g69
S'*I\xe6\xc4\x86q\xfa?'
tRp671
asg321
(lp672
I0
aI4
asg323
(lp673
F4.7681820392608643
aF4.8365929126739502
asg325
(lp674
I0
aI72
asbaa(lp675
S'train_objective'
p676
ag1
(g311
g3
NtRp677
(dp678
g314
(lp679
I0
aI1
asg316
Nsg317
(lp680
g262
(g69
S'\x0b\x03\xadz\xea\x93\xf1?'
tRp681
ag262
(g69
S"'\xfe=\xe5#X\xc5?"
tRp682
asg321
(lp683
I0
aI4
asg323
(lp684
F4.7681820392608643
aF4.8365929126739502
asg325
(lp685
I0
aI72
asbaa(lp686
S'train_h0_range_x_min_u'
p687
ag1
(g311
g3
NtRp688
(dp689
g314
(lp690
I0
aI1
asg316
g332
sg317
(lp691
g262
(g69
S'\xb85\xfb\xe5N\xfdk?'
tRp692
ag262
(g69
S'q\xbc\xdc\x1cjQ\xb7?'
tRp693
asg321
(lp694
I0
aI4
asg323
(lp695
F4.7681820392608643
aF4.8365929126739502
asg325
(lp696
I0
aI72
asbaa(lp697
S'train_h0_min_x_mean_u'
p698
ag1
(g311
g3
NtRp699
(dp700
g314
(lp701
I0
aI1
asg316
g344
sg317
(lp702
g262
(g69
S'\x8c\xf0\nh\x7f\x0b\xdd?'
tRp703
ag262
(g69
S'\xf9=\x17l\xb2\x8c\xd4?'
tRp704
asg321
(lp705
I0
aI4
asg323
(lp706
F4.7681820392608643
aF4.8365929126739502
asg325
(lp707
I0
aI72
asbaa(lp708
S'train_h0_mean_x_max_u'
p709
ag1
(g311
g3
NtRp710
(dp711
g314
(lp712
I0
aI1
asg316
g356
sg317
(lp713
g262
(g69
S'\x13\xd9\x87\xa7d\xf9\xef?'
tRp714
ag262
(g69
S"\x7fT2\x15\xdd'\xef?"
tRp715
asg321
(lp716
I0
aI4
asg323
(lp717
F4.7681820392608643
aF4.8365929126739502
asg325
(lp718
I0
aI72
asbaa(lp719
S'train_y_col_norms_max'
p720
ag1
(g311
g3
NtRp721
(dp722
g314
(lp723
I0
aI1
asg316
g368
sg317
(lp724
g262
(g69
S'\x00\x00\x00\x00\x00\x00\x00\x00'
tRp725
ag262
(g69
S'\xd0\xcf\x1fCb\x19\x1a@'
tRp726
asg321
(lp727
I0
aI4
asg323
(lp728
F4.7681820392608643
aF4.8365929126739502
asg325
(lp729
I0
aI72
asbaa(lp730
S'train_y_nll'
p731
ag1
(g311
g3
NtRp732
(dp733
g314
(lp734
I0
aI1
asg316
g380
sg317
(lp735
g262
(g69
S'\x0b\x03\xadz\xea\x93\xf1?'
tRp736
ag262
(g69
S"'\xfe=\xe5#X\xc5?"
tRp737
asg321
(lp738
I0
aI4
asg323
(lp739
F4.7681820392608643
aF4.8365929126739502
asg325
(lp740
I0
aI72
asbaa(lp741
S'train_h0_range_x_max_u'
p742
ag1
(g311
g3
NtRp743
(dp744
g314
(lp745
I0
aI1
asg316
g392
sg317
(lp746
g262
(g69
S'a]t\xb3\xd7@\xc0?'
tRp747
ag262
(g69
S'\xc0\x08]\x91\x8d\xb0\xef?'
tRp748
asg321
(lp749
I0
aI4
asg323
(lp750
F4.7681820392608643
aF4.8365929126739502
asg325
(lp751
I0
aI72
asbaa(lp752
S'train_h0_range_x_mean_u'
p753
ag1
(g311
g3
NtRp754
(dp755
g314
(lp756
I0
aI1
asg316
g404
sg317
(lp757
g262
(g69
S'M#\xbb\xb5\\[\xac?'
tRp758
ag262
(g69
S'\xbb\xfa)\xd0W\x9b\xe5?'
tRp759
asg321
(lp760
I0
aI4
asg323
(lp761
F4.7681820392608643
aF4.8365929126739502
asg325
(lp762
I0
aI72
asbaa(lp763
S'train_h0_min_x_max_u'
p764
ag1
(g311
g3
NtRp765
(dp766
g314
(lp767
I0
aI1
asg316
g416
sg317
(lp768
g262
(g69
S'|\xe7\x7f\xc5\xfe\xe3\xef?'
tRp769
ag262
(g69
S'\xca\x01\xb7r\xf3\x12\xed?'
tRp770
asg321
(lp771
I0
aI4
asg323
(lp772
F4.7681820392608643
aF4.8365929126739502
asg325
(lp773
I0
aI72
asbaa(lp774
S'train_h0_max_x_min_u'
p775
ag1
(g311
g3
NtRp776
(dp777
g314
(lp778
I0
aI1
asg316
g428
sg317
(lp779
g262
(g69
S'#\xdc\xd4N\x19\xb7\xa2?'
tRp780
ag262
(g69
S'\x97OD\x06\xf9\xa7\xef?'
tRp781
asg321
(lp782
I0
aI4
asg323
(lp783
F4.7681820392608643
aF4.8365929126739502
asg325
(lp784
I0
aI72
asbaa(lp785
S'train_h0_row_norms_min'
p786
ag1
(g311
g3
NtRp787
(dp788
g314
(lp789
I0
aI1
asg316
g440
sg317
(lp790
g262
(g69
S'\x00\x00\x00\x00\x00\x00\x00\x00'
tRp791
ag262
(g69
S">4\x91\x03''\xff?"
tRp792
asg321
(lp793
I0
aI4
asg323
(lp794
F4.7681820392608643
aF4.8365929126739502
asg325
(lp795
I0
aI72
asbaa(lp796
S'train_y_row_norms_max'
p797
ag1
(g311
g3
NtRp798
(dp799
g314
(lp800
I0
aI1
asg316
g452
sg317
(lp801
g262
(g69
S'\x00\x00\x00\x00\x00\x00\x00\x00'
tRp802
ag262
(g69
S'\xfb{\xfb\x07\xed\x94\x1d@'
tRp803
asg321
(lp804
I0
aI4
asg323
(lp805
F4.7681820392608643
aF4.8365929126739502
asg325
(lp806
I0
aI72
asbaa(lp807
S'train_y_misclass'
p808
ag1
(g311
g3
NtRp809
(dp810
g314
(lp811
I0
aI1
asg316
g464
sg317
(lp812
g262
(g69
S'9\x8e\xe38\x8e\xe3\xe4?'
tRp813
ag262
(g69
S'\x1c\xc7q\x1c\xc7q\x9c?'
tRp814
asg321
(lp815
I0
aI4
asg323
(lp816
F4.7681820392608643
aF4.8365929126739502
asg325
(lp817
I0
aI72
asbaa(lp818
S'train_h0_min_x_min_u'
p819
ag1
(g311
g3
NtRp820
(dp821
g314
(lp822
I0
aI1
asg316
g476
sg317
(lp823
g262
(g69
S'\x04\xc8&u\xba\rJ?'
tRp824
ag262
(g69
S"\xa8\xec'\xf7\xb2$T?"
tRp825
asg321
(lp826
I0
aI4
asg323
(lp827
F4.7681820392608643
aF4.8365929126739502
asg325
(lp828
I0
aI72
asbaa(lp829
S'train_y_mean_max_class'
p830
ag1
(g311
g3
NtRp831
(dp832
g314
(lp833
I0
aI1
asg316
g488
sg317
(lp834
g262
(g69
S'TUUUUU\xd5?'
tRp835
ag262
(g69
S'&K\xcanC\xdb\xeb?'
tRp836
asg321
(lp837
I0
aI4
asg323
(lp838
F4.7681820392608643
aF4.8365929126739502
asg325
(lp839
I0
aI72
asbaa(lp840
S'train_h0_row_norms_mean'
p841
ag1
(g311
g3
NtRp842
(dp843
g314
(lp844
I0
aI1
asg316
g500
sg317
(lp845
g262
(g69
S'\x0fK\x9c\xe5\xf1E\xea?'
tRp846
ag262
(g69
S'\x8a\x0f`V\x04\x02\x05@'
tRp847
asg321
(lp848
I0
aI4
asg323
(lp849
F4.7681820392608643
aF4.8365929126739502
asg325
(lp850
I0
aI72
asbaa(lp851
S'train_h0_col_norms_max'
p852
ag1
(g311
g3
NtRp853
(dp854
g314
(lp855
I0
aI1
asg316
g512
sg317
(lp856
g262
(g69
S'\xdd,\x07\xb6K\xf2\xfd?'
tRp857
ag262
(g69
S'\xea\x95\x12\x1b\xc7\xc3\x11@'
tRp858
asg321
(lp859
I0
aI4
asg323
(lp860
F4.7681820392608643
aF4.8365929126739502
asg325
(lp861
I0
aI72
asbaa(lp862
S'train_h0_mean_x_mean_u'
p863
ag1
(g311
g3
NtRp864
(dp865
g314
(lp866
I0
aI1
asg316
g524
sg317
(lp867
g262
(g69
S'\xca=\xd68\xeb\xb2\xde?'
tRp868
ag262
(g69
S"\x1ah\xca\xc3H'\xe5?"
tRp869
asg321
(lp870
I0
aI4
asg323
(lp871
F4.7681820392608643
aF4.8365929126739502
asg325
(lp872
I0
aI72
asbaa(lp873
S'train_y_row_norms_min'
p874
ag1
(g311
g3
NtRp875
(dp876
g314
(lp877
I0
aI1
asg316
g536
sg317
(lp878
g262
(g69
S'\x00\x00\x00\x00\x00\x00\x00\x00'
tRp879
ag262
(g69
S'\x85\xdf\x7f\x17\xe0\x05\n@'
tRp880
asg321
(lp881
I0
aI4
asg323
(lp882
F4.7681820392608643
aF4.8365929126739502
asg325
(lp883
I0
aI72
asbaa(lp884
S'train_h0_mean_x_min_u'
p885
ag1
(g311
g3
NtRp886
(dp887
g314
(lp888
I0
aI1
asg316
g548
sg317
(lp889
g262
(g69
S'\xceb3\x05\x8d`\x89?'
tRp890
ag262
(g69
S'.]R\xb4dw\xd6?'
tRp891
asg321
(lp892
I0
aI4
asg323
(lp893
F4.7681820392608643
aF4.8365929126739502
asg325
(lp894
I0
aI72
asbaa(lp895
S'train_h0_max_x_mean_u'
p896
ag1
(g311
g3
NtRp897
(dp898
g314
(lp899
I0
aI1
asg316
g560
sg317
(lp900
g262
(g69
S'{*a\x7fuK\xe0?'
tRp901
ag262
(g69
S'\xb9\x995\x06\xb1\xe1\xef?'
tRp902
asg321
(lp903
I0
aI4
asg323
(lp904
F4.7681820392608643
aF4.8365929126739502
asg325
(lp905
I0
aI72
asbaa(lp906
S'train_y_col_norms_mean'
p907
ag1
(g311
g3
NtRp908
(dp909
g314
(lp910
I0
aI1
asg316
g572
sg317
(lp911
g262
(g69
S'\x00\x00\x00\x00\x00\x00\x00\x00'
tRp912
ag262
(g69
S'(\xad\xde\xbd\xedw\x13@'
tRp913
asg321
(lp914
I0
aI4
asg323
(lp915
F4.7681820392608643
aF4.8365929126739502
asg325
(lp916
I0
aI72
asbaa(lp917
S'train_y_max_max_class'
p918
ag1
(g311
g3
NtRp919
(dp920
g314
(lp921
I0
aI1
asg316
g584
sg317
(lp922
g262
(g69
S'VUUUUU\xd5?'
tRp923
ag262
(g69
S'?E\xbb\x92\x15&\xee?'
tRp924
asg321
(lp925
I0
aI4
asg323
(lp926
F4.7681820392608643
aF4.8365929126739502
asg325
(lp927
I0
aI72
asbaa(lp928
S'train_h0_col_norms_mean'
p929
ag1
(g311
g3
NtRp930
(dp931
g314
(lp932
I0
aI1
asg316
g596
sg317
(lp933
g262
(g69
S'\xff\xb8\xc3M\xcf\xb7\xec?'
tRp934
ag262
(g69
S'\xc7\xf0\x08\xa6\x0c,\x07@'
tRp935
asg321
(lp936
I0
aI4
asg323
(lp937
F4.7681820392608643
aF4.8365929126739502
asg325
(lp938
I0
aI72
asbaa(lp939
S'train_y_min_max_class'
p940
ag1
(g311
g3
NtRp941
(dp942
g314
(lp943
I0
aI1
asg316
g608
sg317
(lp944
g262
(g69
S'VUUUUU\xd5?'
tRp945
ag262
(g69
S'BO\xfa5BT\xe2?'
tRp946
asg321
(lp947
I0
aI4
asg323
(lp948
F4.7681820392608643
aF4.8365929126739502
asg325
(lp949
I0
aI72
asbaa(lp950
S'train_y_row_norms_mean'
p951
ag1
(g311
g3
NtRp952
(dp953
g314
(lp954
I0
aI1
asg316
g620
sg317
(lp955
g262
(g69
S'\x00\x00\x00\x00\x00\x00\x00\x00'
tRp956
ag262
(g69
S'\xc2\xa2\xd8]D\xf9\x13@'
tRp957
asg321
(lp958
I0
aI4
asg323
(lp959
F4.7681820392608643
aF4.8365929126739502
asg325
(lp960
I0
aI72
asbaa(lp961
S'train_h0_row_norms_max'
p962
ag1
(g311
g3
NtRp963
(dp964
g314
(lp965
I0
aI1
asg316
g632
sg317
(lp966
g262
(g69
S'\xcdw/\x1cu\xf0\xf7?'
tRp967
ag262
(g69
S'B\xa2\x85\x93\x85S\r@'
tRp968
asg321
(lp969
I0
aI4
asg323
(lp970
F4.7681820392608643
aF4.8365929126739502
asg325
(lp971
I0
aI72
asbaa(lp972
S'train_h0_max_x_max_u'
p973
ag1
(g311
g3
NtRp974
(dp975
g314
(lp976
I0
aI1
asg316
g644
sg317
(lp977
g262
(g69
S'\xb2\xe2e\x14\xfc\xff\xef?'
tRp978
ag262
(g69
S':\xe4\tV\xf9\xff\xef?'
tRp979
asg321
(lp980
I0
aI4
asg323
(lp981
F4.7681820392608643
aF4.8365929126739502
asg325
(lp982
I0
aI72
asbaa(lp983
S'train_y_col_norms_min'
p984
ag1
(g311
g3
NtRp985
(dp986
g314
(lp987
I0
aI1
asg316
g656
sg317
(lp988
g262
(g69
S'\x00\x00\x00\x00\x00\x00\x00\x00'
tRp989
ag262
(g69
S'F\xbcOi\xf8\xf3\xfe?'
tRp990
asg321
(lp991
I0
aI4
asg323
(lp992
F4.7681820392608643
aF4.8365929126739502
asg325
(lp993
I0
aI72
asbaa(lp994
S'train_h0_col_norms_min'
p995
ag1
(g311
g3
NtRp996
(dp997
g314
(lp998
I0
aI1
asg316
g668
sg317
(lp999
g262
(g69
S'K\x9e\xc0\xc0u\xad\xb9?'
tRp1000
ag262
(g69
S'*I\xe6\xc4\x86q\xfa?'
tRp1001
asg321
(lp1002
I0
aI4
asg323
(lp1003
F4.7681820392608643
aF4.8365929126739502
asg325
(lp1004
I0
aI72
asbaa(lp1005
S'valid_objective'
p1006
ag1
(g311
g3
NtRp1007
(dp1008
g314
(lp1009
I0
aI1
asg316
Nsg317
(lp1010
g262
(g69
S'\n\x03\xadz\xea\x93\xf1?'
tRp1011
ag262
(g69
S'\xa2\xd5\xf9\xf3\xbb\xd7\xc7?'
tRp1012
asg321
(lp1013
I0
aI4
asg323
(lp1014
F4.7681820392608643
aF4.8365929126739502
asg325
(lp1015
I0
aI72
asbaa(lp1016
S'valid_h0_range_x_min_u'
p1017
ag1
(g311
g3
NtRp1018
(dp1019
g314
(lp1020
I0
aI1
asg316
g332
sg317
(lp1021
g262
(g69
S'\x00\xbe\xfe\xe2\x9a\xaa\x83?'
tRp1022
ag262
(g69
S'\x98$\xf8\xdd\x84\x89\xc4?'
tRp1023
asg321
(lp1024
I0
aI4
asg323
(lp1025
F4.7681820392608643
aF4.8365929126739502
asg325
(lp1026
I0
aI72
asbaa(lp1027
S'valid_h0_min_x_mean_u'
p1028
ag1
(g311
g3
NtRp1029
(dp1030
g314
(lp1031
I0
aI1
asg316
g344
sg317
(lp1032
g262
(g69
S'\x1d\\@\x10\x03N\xdd?'
tRp1033
ag262
(g69
S'\xef\x81\xa0GS\x05\xd4?'
tRp1034
asg321
(lp1035
I0
aI4
asg323
(lp1036
F4.7681820392608643
aF4.8365929126739502
asg325
(lp1037
I0
aI72
asbaa(lp1038
S'valid_h0_mean_x_max_u'
p1039
ag1
(g311
g3
NtRp1040
(dp1041
g314
(lp1042
I0
aI1
asg316
g356
sg317
(lp1043
g262
(g69
S'\xd5\xed\x9c\xc0`\xf8\xef?'
tRp1044
ag262
(g69
S'\x8e\xff\xac\xb3\x9c;\xef?'
tRp1045
asg321
(lp1046
I0
aI4
asg323
(lp1047
F4.7681820392608643
aF4.8365929126739502
asg325
(lp1048
I0
aI72
asbaa(lp1049
S'valid_y_col_norms_max'
p1050
ag1
(g311
g3
NtRp1051
(dp1052
g314
(lp1053
I0
aI1
asg316
g368
sg317
(lp1054
g262
(g69
S'\x00\x00\x00\x00\x00\x00\x00\x00'
tRp1055
ag262
(g69
S'\xd1\xcf\x1fCb\x19\x1a@'
tRp1056
asg321
(lp1057
I0
aI4
asg323
(lp1058
F4.7681820392608643
aF4.8365929126739502
asg325
(lp1059
I0
aI72
asbaa(lp1060
S'valid_y_nll'
p1061
ag1
(g311
g3
NtRp1062
(dp1063
g314
(lp1064
I0
aI1
asg316
g380
sg317
(lp1065
g262
(g69
S'\n\x03\xadz\xea\x93\xf1?'
tRp1066
ag262
(g69
S'\xa2\xd5\xf9\xf3\xbb\xd7\xc7?'
tRp1067
asg321
(lp1068
I0
aI4
asg323
(lp1069
F4.7681820392608643
aF4.8365929126739502
asg325
(lp1070
I0
aI72
asbaa(lp1071
S'valid_h0_range_x_max_u'
p1072
ag1
(g311
g3
NtRp1073
(dp1074
g314
(lp1075
I0
aI1
asg316
g392
sg317
(lp1076
g262
(g69
S'G\xfb\x06\x03\x7fA\xbb?'
tRp1077
ag262
(g69
S'\x9c\x195x\xde\xae\xef?'
tRp1078
asg321
(lp1079
I0
aI4
asg323
(lp1080
F4.7681820392608643
aF4.8365929126739502
asg325
(lp1081
I0
aI72
asbaa(lp1082
S'valid_h0_range_x_mean_u'
p1083
ag1
(g311
g3
NtRp1084
(dp1085
g314
(lp1086
I0
aI1
asg316
g404
sg317
(lp1087
g262
(g69
S'\x9d2\xb9(BV\xaa?'
tRp1088
ag262
(g69
S'kpDX-\xe5\xe5?'
tRp1089
asg321
(lp1090
I0
aI4
asg323
(lp1091
F4.7681820392608643
aF4.8365929126739502
asg325
(lp1092
I0
aI72
asbaa(lp1093
S'valid_h0_min_x_max_u'
p1094
ag1
(g311
g3
NtRp1095
(dp1096
g314
(lp1097
I0
aI1
asg316
g416
sg317
(lp1098
g262
(g69
S'\xe9F\x9cu7\xb1\xef?'
tRp1099
ag262
(g69
S'1\xf0\x8c]\x9c\xd4\xea?'
tRp1100
asg321
(lp1101
I0
aI4
asg323
(lp1102
F4.7681820392608643
aF4.8365929126739502
asg325
(lp1103
I0
aI72
asbaa(lp1104
S'valid_h0_max_x_min_u'
p1105
ag1
(g311
g3
NtRp1106
(dp1107
g314
(lp1108
I0
aI1
asg316
g428
sg317
(lp1109
g262
(g69
S'\xabW\xefE\xc1\xa3\xa4?'
tRp1110
ag262
(g69
S'\xbf\xe3M\xbb\x8a\xc0\xef?'
tRp1111
asg321
(lp1112
I0
aI4
asg323
(lp1113
F4.7681820392608643
aF4.8365929126739502
asg325
(lp1114
I0
aI72
asbaa(lp1115
S'valid_h0_row_norms_min'
p1116
ag1
(g311
g3
NtRp1117
(dp1118
g314
(lp1119
I0
aI1
asg316
g440
sg317
(lp1120
g262
(g69
S'\x00\x00\x00\x00\x00\x00\x00\x00'
tRp1121
ag262
(g69
S">4\x91\x03''\xff?"
tRp1122
asg321
(lp1123
I0
aI4
asg323
(lp1124
F4.7681820392608643
aF4.8365929126739502
asg325
(lp1125
I0
aI72
asbaa(lp1126
S'valid_y_row_norms_max'
p1127
ag1
(g311
g3
NtRp1128
(dp1129
g314
(lp1130
I0
aI1
asg316
g452
sg317
(lp1131
g262
(g69
S'\x00\x00\x00\x00\x00\x00\x00\x00'
tRp1132
ag262
(g69
S'\xfa{\xfb\x07\xed\x94\x1d@'
tRp1133
asg321
(lp1134
I0
aI4
asg323
(lp1135
F4.7681820392608643
aF4.8365929126739502
asg325
(lp1136
I0
aI72
asbaa(lp1137
S'valid_y_misclass'
p1138
ag1
(g311
g3
NtRp1139
(dp1140
g314
(lp1141
I0
aI1
asg316
g464
sg317
(lp1142
g262
(g69
S'\x96\x96\x96\x96\x96\x96\xe6?'
tRp1143
ag263
asg321
(lp1144
I0
aI4
asg323
(lp1145
F4.7681820392608643
aF4.8365929126739502
asg325
(lp1146
I0
aI72
asbaa(lp1147
S'valid_h0_min_x_min_u'
p1148
ag1
(g311
g3
NtRp1149
(dp1150
g314
(lp1151
I0
aI1
asg316
g476
sg317
(lp1152
g262
(g69
S'g^\x16\xa9\xf8\xe9`?'
tRp1153
ag262
(g69
S'\x83"\xca\x18C\xaca?'
tRp1154
asg321
(lp1155
I0
aI4
asg323
(lp1156
F4.7681820392608643
aF4.8365929126739502
asg325
(lp1157
I0
aI72
asbaa(lp1158
S'valid_y_mean_max_class'
p1159
ag1
(g311
g3
NtRp1160
(dp1161
g314
(lp1162
I0
aI1
asg316
g488
sg317
(lp1163
g262
(g69
S'TUUUUU\xd5?'
tRp1164
ag262
(g69
S'fo\x1b\xc59\xee\xea?'
tRp1165
asg321
(lp1166
I0
aI4
asg323
(lp1167
F4.7681820392608643
aF4.8365929126739502
asg325
(lp1168
I0
aI72
asbaa(lp1169
S'valid_h0_row_norms_mean'
p1170
ag1
(g311
g3
NtRp1171
(dp1172
g314
(lp1173
I0
aI1
asg316
g500
sg317
(lp1174
g262
(g69
S'\x10K\x9c\xe5\xf1E\xea?'
tRp1175
ag262
(g69
S'\x8a\x0f`V\x04\x02\x05@'
tRp1176
asg321
(lp1177
I0
aI4
asg323
(lp1178
F4.7681820392608643
aF4.8365929126739502
asg325
(lp1179
I0
aI72
asbaa(lp1180
S'valid_h0_col_norms_max'
p1181
ag1
(g311
g3
NtRp1182
(dp1183
g314
(lp1184
I0
aI1
asg316
g512
sg317
(lp1185
g262
(g69
S'\xde,\x07\xb6K\xf2\xfd?'
tRp1186
ag262
(g69
S'\xeb\x95\x12\x1b\xc7\xc3\x11@'
tRp1187
asg321
(lp1188
I0
aI4
asg323
(lp1189
F4.7681820392608643
aF4.8365929126739502
asg325
(lp1190
I0
aI72
asbaa(lp1191
S'valid_h0_mean_x_mean_u'
p1192
ag1
(g311
g3
NtRp1193
(dp1194
g314
(lp1195
I0
aI1
asg316
g524
sg317
(lp1196
g262
(g69
S"\xb38'U\xbe\xca\xde?"
tRp1197
ag262
(g69
S'\xe9C\xfd\xa3x\xaa\xe5?'
tRp1198
asg321
(lp1199
I0
aI4
asg323
(lp1200
F4.7681820392608643
aF4.8365929126739502
asg325
(lp1201
I0
aI72
asbaa(lp1202
S'valid_y_row_norms_min'
p1203
ag1
(g311
g3
NtRp1204
(dp1205
g314
(lp1206
I0
aI1
asg316
g536
sg317
(lp1207
g262
(g69
S'\x00\x00\x00\x00\x00\x00\x00\x00'
tRp1208
ag262
(g69
S'\x85\xdf\x7f\x17\xe0\x05\n@'
tRp1209
asg321
(lp1210
I0
aI4
asg323
(lp1211
F4.7681820392608643
aF4.8365929126739502
asg325
(lp1212
I0
aI72
asbaa(lp1213
S'valid_h0_mean_x_min_u'
p1214
ag1
(g311
g3
NtRp1215
(dp1216
g314
(lp1217
I0
aI1
asg316
g548
sg317
(lp1218
g262
(g69
S'\xdc\xc1\xf5\xab\xc1\x1b\x8a?'
tRp1219
ag262
(g69
S'\xd8D\xd57b\x08\xd4?'
tRp1220
asg321
(lp1221
I0
aI4
asg323
(lp1222
F4.7681820392608643
aF4.8365929126739502
asg325
(lp1223
I0
aI72
asbaa(lp1224
S'valid_h0_max_x_mean_u'
p1225
ag1
(g311
g3
NtRp1226
(dp1227
g314
(lp1228
I0
aI1
asg316
g560
sg317
(lp1229
g262
(g69
S'9\xc1\xab\xaaeL\xe0?'
tRp1230
ag262
(g69
S'c\xb1\x14\xfc\xd6\xe7\xef?'
tRp1231
asg321
(lp1232
I0
aI4
asg323
(lp1233
F4.7681820392608643
aF4.8365929126739502
asg325
(lp1234
I0
aI72
asbaa(lp1235
S'valid_y_col_norms_mean'
p1236
ag1
(g311
g3
NtRp1237
(dp1238
g314
(lp1239
I0
aI1
asg316
g572
sg317
(lp1240
g262
(g69
S'\x00\x00\x00\x00\x00\x00\x00\x00'
tRp1241
ag262
(g69
S'(\xad\xde\xbd\xedw\x13@'
tRp1242
asg321
(lp1243
I0
aI4
asg323
(lp1244
F4.7681820392608643
aF4.8365929126739502
asg325
(lp1245
I0
aI72
asbaa(lp1246
S'valid_y_max_max_class'
p1247
ag1
(g311
g3
NtRp1248
(dp1249
g314
(lp1250
I0
aI1
asg316
g584
sg317
(lp1251
g262
(g69
S'UUUUUU\xd5?'
tRp1252
ag262
(g69
S'\x97\x8a\x92\x07+\x8b\xed?'
tRp1253
asg321
(lp1254
I0
aI4
asg323
(lp1255
F4.7681820392608643
aF4.8365929126739502
asg325
(lp1256
I0
aI72
asbaa(lp1257
S'valid_h0_col_norms_mean'
p1258
ag1
(g311
g3
NtRp1259
(dp1260
g314
(lp1261
I0
aI1
asg316
g596
sg317
(lp1262
g262
(g69
S'\x00\xb9\xc3M\xcf\xb7\xec?'
tRp1263
ag262
(g69
S'\xc7\xf0\x08\xa6\x0c,\x07@'
tRp1264
asg321
(lp1265
I0
aI4
asg323
(lp1266
F4.7681820392608643
aF4.8365929126739502
asg325
(lp1267
I0
aI72
asbaa(lp1268
S'valid_y_min_max_class'
p1269
ag1
(g311
g3
NtRp1270
(dp1271
g314
(lp1272
I0
aI1
asg316
g608
sg317
(lp1273
g262
(g69
S'UUUUUU\xd5?'
tRp1274
ag262
(g69
S'S\x91\xd6\xb1\x8a\x1e\xe0?'
tRp1275
asg321
(lp1276
I0
aI4
asg323
(lp1277
F4.7681820392608643
aF4.8365929126739502
asg325
(lp1278
I0
aI72
asbaa(lp1279
S'valid_y_row_norms_mean'
p1280
ag1
(g311
g3
NtRp1281
(dp1282
g314
(lp1283
I0
aI1
asg316
g620
sg317
(lp1284
g262
(g69
S'\x00\x00\x00\x00\x00\x00\x00\x00'
tRp1285
ag262
(g69
S'\xc3\xa2\xd8]D\xf9\x13@'
tRp1286
asg321
(lp1287
I0
aI4
asg323
(lp1288
F4.7681820392608643
aF4.8365929126739502
asg325
(lp1289
I0
aI72
asbaa(lp1290
S'valid_h0_row_norms_max'
p1291
ag1
(g311
g3
NtRp1292
(dp1293
g314
(lp1294
I0
aI1
asg316
g632
sg317
(lp1295
g262
(g69
S'\xcdw/\x1cu\xf0\xf7?'
tRp1296
ag262
(g69
S'B\xa2\x85\x93\x85S\r@'
tRp1297
asg321
(lp1298
I0
aI4
asg323
(lp1299
F4.7681820392608643
aF4.8365929126739502
asg325
(lp1300
I0
aI72
asbaa(lp1301
S'valid_h0_max_x_max_u'
p1302
ag1
(g311
g3
NtRp1303
(dp1304
g314
(lp1305
I0
aI1
asg316
g644
sg317
(lp1306
g262
(g69
S'\xe1A(\xe1\xe1\xff\xef?'
tRp1307
ag262
(g69
S'\x107\xe5\xa3\xfc\xff\xef?'
tRp1308
asg321
(lp1309
I0
aI4
asg323
(lp1310
F4.7681820392608643
aF4.8365929126739502
asg325
(lp1311
I0
aI72
asbaa(lp1312
S'valid_y_col_norms_min'
p1313
ag1
(g311
g3
NtRp1314
(dp1315
g314
(lp1316
I0
aI1
asg316
g656
sg317
(lp1317
g262
(g69
S'\x00\x00\x00\x00\x00\x00\x00\x00'
tRp1318
ag262
(g69
S'G\xbcOi\xf8\xf3\xfe?'
tRp1319
asg321
(lp1320
I0
aI4
asg323
(lp1321
F4.7681820392608643
aF4.8365929126739502
asg325
(lp1322
I0
aI72
asbaa(lp1323
S'valid_h0_col_norms_min'
p1324
ag1
(g311
g3
NtRp1325
(dp1326
g314
(lp1327
I0
aI1
asg316
g668
sg317
(lp1328
g262
(g69
S'K\x9e\xc0\xc0u\xad\xb9?'
tRp1329
ag262
(g69
S'+I\xe6\xc4\x86q\xfa?'
tRp1330
asg321
(lp1331
I0
aI4
asg323
(lp1332
F4.7681820392608643
aF4.8365929126739502
asg325
(lp1333
I0
aI72
asbaa(lp1334
S'ave_step_size'
p1335
ag1
(g311
g3
NtRp1336
(dp1337
g314
(lp1338
I0
aI1
asg316
Nsg317
(lp1339
g262
(g69
S'\x00\x00\x00\x00\x00\x00\x00\x00'
tRp1340
ag262
(g69
S'\xb2\xa4:\xaa\xbfF\xd4?'
tRp1341
asg321
(lp1342
I0
aI4
asg323
(lp1343
F4.7681820392608643
aF4.8365929126739502
asg325
(lp1344
I0
aI72
asbaa(lp1345
S'ave_grad_size'
p1346
ag1
(g311
g3
NtRp1347
(dp1348
g314
(lp1349
I0
aI1
asg316
Nsg317
(lp1350
g262
(g69
S'\x00\x00\x00\x00\x00\x00\x00\x00'
tRp1351
ag262
(g69
S'\xf9{X\xe8\x93\xe1\xd0?'
tRp1352
asg321
(lp1353
I0
aI4
asg323
(lp1354
F4.7681820392608643
aF4.8365929126739502
asg325
(lp1355
I0
aI72
asbaa(lp1356
S'ave_grad_mult'
p1357
ag1
(g311
g3
NtRp1358
(dp1359
g314
(lp1360
I0
aI1
asg316
Nsg317
(lp1361
g262
(g69
S'\x00\x00\x00\x00\x00\x00\x00\x00'
tRp1362
ag262
(g69
S'2\x1e\x97]zM\xf7?'
tRp1363
asg321
(lp1364
I0
aI4
asg323
(lp1365
F4.7681820392608643
aF4.8365929126739502
asg325
(lp1366
I0
aI72
asbaa(lp1367
S'training_seconds_this_epoch'
p1368
ag1
(g311
g3
NtRp1369
(dp1370
g314
(lp1371
I0
aI1
asg316
S'The number of seconds that were spent in actual training during the most\nrecent epoch. This excludes seconds that were spent running callbacks for\nthe extensions, computing monitoring channels, etc.'
p1372
sg317
(lp1373
g262
(g69
S'\x00\x00\x00\x00\x00\x00\x00\x00'
tRp1374
ag262
(g69
S'\xecl\xc8?3\x88\xa7?'
tRp1375
asg321
(lp1376
I0
aI4
asg323
(lp1377
F4.7681820392608643
aF4.8365929126739502
asg325
(lp1378
I0
aI72
asbaa(lp1379
S'total_seconds_last_epoch'
p1380
ag1
(g311
g3
NtRp1381
(dp1382
g314
(lp1383
I0
aI1
asg316
S'The number of seconds that were spent on the entirety of processing for the\nprevious epoch. This includes not only training but also the computation of\nthe monitoring channels, running TrainExtension callbacks, etc. This value\nis reported for the *previous* epoch because the amount of time spent on\nmonitoring for this epoch is not known until the monitoring channels have\nalready been reported.'
p1384
sg317
(lp1385
g262
(g69
S'\x00\x00\x00\x00\x00\x00\x00\x00'
tRp1386
ag262
(g69
S'\x00\x00\x00\x00\x00\x00\x00\x00'
tRp1387
asg321
(lp1388
I0
aI4
asg323
(lp1389
F4.7681820392608643
aF4.8365929126739502
asg325
(lp1390
I0
aI72
asbaatRp1391
sS'_datasets'
p1392
(lp1393
S"!obj:practice_dataset.PracticeDataset {which_set: 'test'}\n"
p1394
aS"!obj:practice_dataset.PracticeDataset {which_set: 'train', start: 0, stop: 72}\n"
p1395
aS"!obj:practice_dataset.PracticeDataset {which_set: 'train', start: 72, stop: 89}\n"
p1396
asS'_iteration_mode'
p1397
(lp1398
S'sequential'
p1399
ag1399
ag1399
asS'_data_specs_mapping'
p1400
g1
(cpylearn2.utils.data_specs
DataSpecsMapping
p1401
g3
NtRp1402
(dp1403
S'spec_mapping'
p1404
((I0
I1
t(I0
I1
t(I0
I1
t(I0
I1
t(I0
I1
t(I0
I1
t(I0
I1
t(I0
I1
t(I0
I1
t(I0
I1
t(I0
I1
t(I0
I1
t(I0
I1
t(I0
I1
t(I0
I1
t(I0
I1
t(I0
I1
t(I0
I1
t(I0
I1
t(I0
I1
t(I0
I1
t(I0
I1
t(I0
I1
t(I0
I1
t(I0
I1
t(I0
I1
t(I0
I1
t(I0
I1
t(I0
I1
t(I0
I1
t(I0
I1
t(I0
I1
t(I0
I1
t(I0
I1
t(I0
I1
t(I0
I1
t(I0
I1
t(I0
I1
t(I0
I1
t(I0
I1
t(I0
I1
t(I0
I1
t(I0
I1
t(I0
I1
t(I0
I1
t(I0
I1
t(I0
I1
t(I0
I1
t(I0
I1
t(I0
I1
t(I0
I1
t(I0
I1
t(I0
I1
t(I0
I1
t(I0
I1
t(I0
I1
t(I0
I1
t(I0
I1
t(I0
I1
t(I0
I1
t(I0
I1
t(I0
I1
t(I0
I1
t(I0
I1
t(I0
I1
t(I0
I1
t(I0
I1
t(I0
I1
t(I0
I1
t(I0
I1
t(I0
I1
t(I0
I1
t(I0
I1
t(I0
I1
t(I0
I1
t(I0
I1
t(I0
I1
t(I0
I1
t(I0
I1
t(I0
I1
t(I0
I1
t(I0
I1
t(I0
I1
t(I0
I1
t(I0
I1
t(I0
I1
t(I0
I1
t(I0
I1
t(I0
I1
t(I0
I1
t(I0
I1
tNNNNNtp1405
sS'specs_to_index'
p1406
(dp1407
(g181
g266
tp1408
I1
s(g28
g284
tp1409
I0
ssS'n_unique_specs'
p1410
I2
sbsS'training_succeeded'
p1411
I00
sS'_num_batches_seen'
p1412
I4
sS't0'
p1413
F1433211226.2362061
sS'on_channel_conflict'
p1414
S'error'
p1415
sg90
(lp1416
S'theano_function_mode'
p1417
aS'accum'
p1418
aS'begin_record_entry'
p1419
aS'num_examples'
p1420
aS'prereqs'
p1421
asS'model'
p1422
g4
sS'_nested_data_specs'
p1423
(g1
(g294
g3
NtRp1424
(dp1425
g33
(lp1426
sg298
(lp1427
g1
(g294
g3
NtRp1428
(dp1429
g33
(lp1430
sg298
(lp1431
g28
ag181
asg36
(lp1432
sbag1
(g294
g3
NtRp1433
(dp1434
g33
(lp1435
sg298
(lp1436
g28
ag181
asg36
(lp1437
sbag1
(g294
g3
NtRp1438
(dp1439
g33
(lp1440
sg298
(lp1441
g28
ag181
asg36
(lp1442
sbag1438
ag1438
ag1438
ag1438
ag1438
ag1438
ag1438
ag1438
ag1438
ag1438
ag1438
ag1438
ag1438
ag1438
ag1438
ag1438
ag1438
ag1438
ag1438
ag1438
ag1438
ag1438
ag1438
ag1438
ag1438
ag1438
ag1438
ag1438
ag1
(g294
g3
NtRp1443
(dp1444
g33
(lp1445
sg298
(lp1446
g28
ag181
asg36
(lp1447
sbag1438
ag1438
ag1438
ag1438
ag1438
ag1438
ag1438
ag1438
ag1438
ag1438
ag1438
ag1438
ag1438
ag1438
ag1438
ag1438
ag1438
ag1438
ag1438
ag1438
ag1438
ag1438
ag1438
ag1438
ag1438
ag1438
ag1438
ag1438
ag1438
ag1
(g294
g3
NtRp1448
(dp1449
g33
(lp1450
sg298
(lp1451
g28
ag181
asg36
(lp1452
sbag1438
ag1438
ag1438
ag1438
ag1438
ag1438
ag1438
ag1438
ag1438
ag1438
ag1438
ag1438
ag1438
ag1438
ag1438
ag1438
ag1438
ag1438
ag1438
ag1438
ag1438
ag1438
ag1438
ag1438
ag1438
ag1438
ag1438
ag1438
ag1438
ag1
(cpylearn2.space
NullSpace
p1453
g3
NtRp1454
(dp1455
g33
(lp1456
sg36
(lp1457
sbag1
(g1453
g3
NtRp1458
(dp1459
g33
(lp1460
sg36
(lp1461
sbag1
(g1453
g3
NtRp1462
(dp1463
g33
(lp1464
sg36
(lp1465
sbag1
(g1453
g3
NtRp1466
(dp1467
g33
(lp1468
sg36
(lp1469
sbag1
(g1453
g3
NtRp1470
(dp1471
g33
(lp1472
sg36
(lp1473
sbasg36
(lp1474
sb((g284
g266
t(g284
g266
tp1475
(g284
g266
tp1476
g1476
g1476
g1476
g1476
g1476
g1476
g1476
g1476
g1476
g1476
g1476
g1476
g1476
g1476
g1476
g1476
g1476
g1476
g1476
g1476
g1476
g1476
g1476
g1476
g1476
g1476
g1476
g1476
(g284
g266
tp1477
g1476
g1476
g1476
g1476
g1476
g1476
g1476
g1476
g1476
g1476
g1476
g1476
g1476
g1476
g1476
g1476
g1476
g1476
g1476
g1476
g1476
g1476
g1476
g1476
g1476
g1476
g1476
g1476
g1476
(g284
g266
tp1478
g1476
g1476
g1476
g1476
g1476
g1476
g1476
g1476
g1476
g1476
g1476
g1476
g1476
g1476
g1476
g1476
g1476
g1476
g1476
g1476
g1476
g1476
g1476
g1476
g1476
g1476
g1476
g1476
g1476
S''
S''
S''
S''
S''
ttp1479
sS'_rng_seed'
p1480
(lp1481
NaNaNasbaa(lp1482
g116
aNaa(lp1483
S'dataset_yaml_src'
p1484
ag1395
aatRp1485
b.